target datalayout = "e-m:e-p270:32:32-p271:32:32-p272:64:64-i64:64-i128:128-f80:128-n8:16:32:64-S128"
target triple = "x86_64-pc-linux-gnu"

%struct.VP8Encoder = type { ptr, ptr, %struct.VP8EncFilterHeader, %struct.VP8EncSegmentHeader, i32, i32, i32, i32, i32, %struct.VP8BitWriter, [8 x %struct.VP8BitWriter], %struct.VP8TBuffer, i32, i32, ptr, i32, %struct.WebPWorker, [4 x %struct.VP8SegmentInfo], i32, i32, i32, i32, i32, i32, i32, i32, %struct.VP8EncProba, [4 x i64], i64, i32, [3 x [4 x i32]], [3 x i32], i32, i32, i32, i32, i32, i32, i32, ptr, ptr, ptr, ptr, ptr, ptr, ptr }
%struct.VP8EncFilterHeader = type { i32, i32, i32, i32 }
%struct.VP8EncSegmentHeader = type { i32, i32, i32 }
%struct.VP8BitWriter = type { i32, i32, i32, i32, ptr, i64, i64, i32 }
%struct.VP8TBuffer = type { ptr, ptr, ptr, i32, i32, i32 }
%struct.WebPWorker = type { ptr, i32, ptr, ptr, ptr, i32 }
%struct.VP8SegmentInfo = type { %struct.VP8Matrix, %struct.VP8Matrix, %struct.VP8Matrix, i32, i32, i32, i32, i32, i32, i32, i32, i32, i32, i32, i32, i32, i32, i32, i64 }
%struct.VP8Matrix = type { [16 x i16], [16 x i16], [16 x i32], [16 x i32], [16 x i16] }
%struct.VP8EncProba = type { [3 x i8], i8, [4 x [8 x [3 x [11 x i8]]]], [4 x [8 x [3 x [11 x i32]]]], [4 x [8 x [3 x [68 x i16]]]], [4 x [16 x [3 x ptr]]], i32, i32, i32 }

; Function Attrs: nounwind uwtable
define hidden void @VP8EncFreeBitWriters(ptr noundef %0) #0 {
  %2 = alloca ptr, align 8
  %3 = alloca i32, align 4
  store ptr %0, ptr %2, align 8, !tbaa !3
  call void @llvm.lifetime.start.p0(i64 4, ptr %3) #6
  %4 = load ptr, ptr %2, align 8, !tbaa !3
  %5 = getelementptr inbounds nuw %struct.VP8Encoder, ptr %4, i32 0, i32 9
  call void @VP8BitWriterWipeOut(ptr noundef %5)
  store i32 0, ptr %3, align 4, !tbaa !8
  br label %6

6:                                                ; preds = %19, %1
  %7 = load i32, ptr %3, align 4, !tbaa !8
  %8 = load ptr, ptr %2, align 8, !tbaa !3
  %9 = getelementptr inbounds nuw %struct.VP8Encoder, ptr %8, i32 0, i32 8
  %10 = load i32, ptr %9, align 4, !tbaa !10
  %11 = icmp slt i32 %7, %10
  br i1 %11, label %12, label %22

12:                                               ; preds = %6
  %13 = load ptr, ptr %2, align 8, !tbaa !3
  %14 = getelementptr inbounds nuw %struct.VP8Encoder, ptr %13, i32 0, i32 10
  %15 = getelementptr inbounds [8 x %struct.VP8BitWriter], ptr %14, i64 0, i64 0
  %16 = load i32, ptr %3, align 4, !tbaa !8
  %17 = sext i32 %16 to i64
  %18 = getelementptr inbounds %struct.VP8BitWriter, ptr %15, i64 %17
  call void @VP8BitWriterWipeOut(ptr noundef %18)
  br label %19

19:                                               ; preds = %12
  %20 = load i32, ptr %3, align 4, !tbaa !8
  %21 = add nsw i32 %20, 1
  store i32 %21, ptr %3, align 4, !tbaa !8
  br label %6, !llvm.loop !27

22:                                               ; preds = %6
  call void @llvm.lifetime.end.p0(i64 4, ptr %3) #6
  ret void
}